target datalayout = "e-m:e-p270:32:32-p271:32:32-p272:64:64-i64:64-i128:128-f80:128-n8:16:32:64-S128"
target triple = "x86_64-pc-linux-gnu"

; Function Attrs: nounwind uwtable
define internal ptr @Pack3WordsBigEndian(ptr noundef %0, ptr noundef %1, ptr noundef %2, i32 noundef %3) #0 {
  %5 = alloca ptr, align 8
  %6 = alloca ptr, align 8
  %7 = alloca ptr, align 8
  %8 = alloca i32, align 4
  store ptr %0, ptr %5, align 8
  store ptr %1, ptr %6, align 8
  store ptr %2, ptr %7, align 8
  store i32 %3, ptr %8, align 4
  %9 = load ptr, ptr %6, align 8
  %10 = getelementptr inbounds i16, ptr %9, i64 0
  %11 = load i16, ptr %10, align 2
  %12 = zext i16 %11 to i32
  %13 = shl i32 %12, 8
  %14 = trunc i32 %13 to i16
  %15 = zext i16 %14 to i32
  %16 = load ptr, ptr %6, align 8
  %17 = getelementptr inbounds i16, ptr %16, i64 0
  %18 = load i16, ptr %17, align 2
  %19 = zext i16 %18 to i32
  %20 = ashr i32 %19, 8
  %21 = or i32 %15, %20
  %22 = trunc i32 %21 to i16
  %23 = load ptr, ptr %7, align 8
  store i16 %22, ptr %23, align 2
  %24 = load ptr, ptr %7, align 8
  %25 = getelementptr inbounds i8, ptr %24, i64 2
  store ptr %25, ptr %7, align 8
  %26 = load ptr, ptr %6, align 8
  %27 = getelementptr inbounds i16, ptr %26, i64 1
  %28 = load i16, ptr %27, align 2
  %29 = zext i16 %28 to i32
  %30 = shl i32 %29, 8
  %31 = trunc i32 %30 to i16
  %32 = zext i16 %31 to i32
  %33 = load ptr, ptr %6, align 8
  %34 = getelementptr inbounds i16, ptr %33, i64 1
  %35 = load i16, ptr %34, align 2
  %36 = zext i16 %35 to i32
  %37 = ashr i32 %36, 8
  %38 = or i32 %32, %37
  %39 = trunc i32 %38 to i16
  %40 = load ptr, ptr %7, align 8
  store i16 %39, ptr %40, align 2
  %41 = load ptr, ptr %7, align 8
  %42 = getelementptr inbounds i8, ptr %41, i64 2
  store ptr %42, ptr %7, align 8
  %43 = load ptr, ptr %6, align 8
  %44 = getelementptr inbounds i16, ptr %43, i64 2
  %45 = load i16, ptr %44, align 2
  %46 = zext i16 %45 to i32
  %47 = shl i32 %46, 8
  %48 = trunc i32 %47 to i16
  %49 = zext i16 %48 to i32
  %50 = load ptr, ptr %6, align 8
  %51 = getelementptr inbounds i16, ptr %50, i64 2
  %52 = load i16, ptr %51, align 2
  %53 = zext i16 %52 to i32
  %54 = ashr i32 %53, 8
  %55 = or i32 %49, %54
  %56 = trunc i32 %55 to i16
  %57 = load ptr, ptr %7, align 8
  store i16 %56, ptr %57, align 2
  %58 = load ptr, ptr %7, align 8
  %59 = getelementptr inbounds i8, ptr %58, i64 2
  store ptr %59, ptr %7, align 8
  %60 = load ptr, ptr %7, align 8
  ret ptr %60
}